target datalayout = "e-m:e-p270:32:32-p271:32:32-p272:64:64-i64:64-f80:128-n8:16:32:64-S128"
target triple = "x86_64-pc-linux-gnu"

%struct.stu = type { [100 x i8], i32, i32, i32, i8, i8 }

@.str = private unnamed_addr constant [3 x i8] c"%d\00", align 1
@.str.1 = private unnamed_addr constant [3 x i8] c"%s\00", align 1
@.str.2 = private unnamed_addr constant [15 x i8] c"%d%d%c%c%c%c%d\00", align 1
@.str.3 = private unnamed_addr constant [4 x i8] c"%s\0A\00", align 1
@.str.4 = private unnamed_addr constant [4 x i8] c"%d\0A\00", align 1

; Function Attrs: noinline nounwind uwtable
define dso_local i32 @main() #0 {
  %1 = alloca i32, align 4
  %2 = alloca i32, align 4
  %3 = alloca i32, align 4
  %4 = alloca i32, align 4
  %5 = alloca i32, align 4
  %6 = alloca i32, align 4
  %7 = alloca [102 x %struct.stu], align 16
  %8 = alloca %struct.stu, align 4
  %9 = alloca [102 x i32], align 16
  %10 = alloca i8, align 1
  %11 = alloca i8, align 1
  store i32 0, i32* %1, align 4
  store i32 0, i32* %3, align 4
  %12 = call i32 (i8*, ...) @__isoc99_scanf(i8* getelementptr inbounds ([3 x i8], [3 x i8]* @.str, i64 0, i64 0), i32* %2)
  store i32 1, i32* %4, align 4
  br label %13

13:                                               ; preds = %45, %0
  %14 = load i32, i32* %4, align 4
  %15 = load i32, i32* %2, align 4
  %16 = icmp sle i32 %14, %15
  br i1 %16, label %17, label %48

17:                                               ; preds = %13
  %18 = load i32, i32* %4, align 4
  %19 = sext i32 %18 to i64
  %20 = getelementptr inbounds [102 x %struct.stu], [102 x %struct.stu]* %7, i64 0, i64 %19
  %21 = getelementptr inbounds %struct.stu, %struct.stu* %20, i32 0, i32 0
  %22 = getelementptr inbounds [100 x i8], [100 x i8]* %21, i64 0, i64 0
  %23 = call i32 (i8*, ...) @__isoc99_scanf(i8* getelementptr inbounds ([3 x i8], [3 x i8]* @.str.1, i64 0, i64 0), i8* %22)
  %24 = load i32, i32* %4, align 4
  %25 = sext i32 %24 to i64
  %26 = getelementptr inbounds [102 x %struct.stu], [102 x %struct.stu]* %7, i64 0, i64 %25
  %27 = getelementptr inbounds %struct.stu, %struct.stu* %26, i32 0, i32 1
  %28 = load i32, i32* %4, align 4
  %29 = sext i32 %28 to i64
  %30 = getelementptr inbounds [102 x %struct.stu], [102 x %struct.stu]* %7, i64 0, i64 %29
  %31 = getelementptr inbounds %struct.stu, %struct.stu* %30, i32 0, i32 2
  %32 = load i32, i32* %4, align 4
  %33 = sext i32 %32 to i64
  %34 = getelementptr inbounds [102 x %struct.stu], [102 x %struct.stu]* %7, i64 0, i64 %33
  %35 = getelementptr inbounds %struct.stu, %struct.stu* %34, i32 0, i32 5
  %36 = load i32, i32* %4, align 4
  %37 = sext i32 %36 to i64
  %38 = getelementptr inbounds [102 x %struct.stu], [102 x %struct.stu]* %7, i64 0, i64 %37
  %39 = getelementptr inbounds %struct.stu, %struct.stu* %38, i32 0, i32 4
  %40 = load i32, i32* %4, align 4
  %41 = sext i32 %40 to i64
  %42 = getelementptr inbounds [102 x %struct.stu], [102 x %struct.stu]* %7, i64 0, i64 %41
  %43 = getelementptr inbounds %struct.stu, %struct.stu* %42, i32 0, i32 3
  %44 = call i32 (i8*, ...) @__isoc99_scanf(i8* getelementptr inbounds ([15 x i8], [15 x i8]* @.str.2, i64 0, i64 0), i32* %27, i32* %31, i8* %10, i8* %35, i8* %11, i8* %39, i32* %43)
  br label %45

45:                                               ; preds = %17
  %46 = load i32, i32* %4, align 4
  %47 = add nsw i32 %46, 1
  store i32 %47, i32* %4, align 4
  br label %13

48:                                               ; preds = %13
  store i32 1, i32* %4, align 4
  br label %49

49:                                               ; preds = %173, %48
  %50 = load i32, i32* %4, align 4
  %51 = load i32, i32* %2, align 4
  %52 = icmp sle i32 %50, %51
  br i1 %52, label %53, label %176

53:                                               ; preds = %49
  %54 = load i32, i32* %4, align 4
  %55 = sext i32 %54 to i64
  %56 = getelementptr inbounds [102 x i32], [102 x i32]* %9, i64 0, i64 %55
  store i32 0, i32* %56, align 4
  %57 = load i32, i32* %4, align 4
  %58 = sext i32 %57 to i64
  %59 = getelementptr inbounds [102 x %struct.stu], [102 x %struct.stu]* %7, i64 0, i64 %58
  %60 = getelementptr inbounds %struct.stu, %struct.stu* %59, i32 0, i32 1
  %61 = load i32, i32* %60, align 4
  %62 = icmp sgt i32 %61, 80
  br i1 %62, label %63, label %79

63:                                               ; preds = %53
  %64 = load i32, i32* %4, align 4
  %65 = sext i32 %64 to i64
  %66 = getelementptr inbounds [102 x %struct.stu], [102 x %struct.stu]* %7, i64 0, i64 %65
  %67 = getelementptr inbounds %struct.stu, %struct.stu* %66, i32 0, i32 3
  %68 = load i32, i32* %67, align 4
  %69 = icmp sge i32 %68, 1
  br i1 %69, label %70, label %79

70:                                               ; preds = %63
  %71 = load i32, i32* %4, align 4
  %72 = sext i32 %71 to i64
  %73 = getelementptr inbounds [102 x i32], [102 x i32]* %9, i64 0, i64 %72
  %74 = load i32, i32* %73, align 4
  %75 = add nsw i32 %74, 8000
  %76 = load i32, i32* %4, align 4
  %77 = sext i32 %76 to i64
  %78 = getelementptr inbounds [102 x i32], [102 x i32]* %9, i64 0, i64 %77
  store i32 %75, i32* %78, align 4
  br label %79

79:                                               ; preds = %70, %63, %53
  %80 = load i32, i32* %4, align 4
  %81 = sext i32 %80 to i64
  %82 = getelementptr inbounds [102 x %struct.stu], [102 x %struct.stu]* %7, i64 0, i64 %81
  %83 = getelementptr inbounds %struct.stu, %struct.stu* %82, i32 0, i32 1
  %84 = load i32, i32* %83, align 4
  %85 = icmp sgt i32 %84, 85
  br i1 %85, label %86, label %102

86:                                               ; preds = %79
  %87 = load i32, i32* %4, align 4
  %88 = sext i32 %87 to i64
  %89 = getelementptr inbounds [102 x %struct.stu], [102 x %struct.stu]* %7, i64 0, i64 %88
  %90 = getelementptr inbounds %struct.stu, %struct.stu* %89, i32 0, i32 2
  %91 = load i32, i32* %90, align 4
  %92 = icmp sgt i32 %91, 80
  br i1 %92, label %93, label %102

93:                                               ; preds = %86
  %94 = load i32, i32* %4, align 4
  %95 = sext i32 %94 to i64
  %96 = getelementptr inbounds [102 x i32], [102 x i32]* %9, i64 0, i64 %95
  %97 = load i32, i32* %96, align 4
  %98 = add nsw i32 %97, 4000
  %99 = load i32, i32* %4, align 4
  %100 = sext i32 %99 to i64
  %101 = getelementptr inbounds [102 x i32], [102 x i32]* %9, i64 0, i64 %100
  store i32 %98, i32* %101, align 4
  br label %102

102:                                              ; preds = %93, %86, %79
  %103 = load i32, i32* %4, align 4
  %104 = sext i32 %103 to i64
  %105 = getelementptr inbounds [102 x %struct.stu], [102 x %struct.stu]* %7, i64 0, i64 %104
  %106 = getelementptr inbounds %struct.stu, %struct.stu* %105, i32 0, i32 1
  %107 = load i32, i32* %106, align 4
  %108 = icmp sgt i32 %107, 90
  br i1 %108, label %109, label %118

109:                                              ; preds = %102
  %110 = load i32, i32* %4, align 4
  %111 = sext i32 %110 to i64
  %112 = getelementptr inbounds [102 x i32], [102 x i32]* %9, i64 0, i64 %111
  %113 = load i32, i32* %112, align 4
  %114 = add nsw i32 %113, 2000
  %115 = load i32, i32* %4, align 4
  %116 = sext i32 %115 to i64
  %117 = getelementptr inbounds [102 x i32], [102 x i32]* %9, i64 0, i64 %116
  store i32 %114, i32* %117, align 4
  br label %118

118:                                              ; preds = %109, %102
  %119 = load i32, i32* %4, align 4
  %120 = sext i32 %119 to i64
  %121 = getelementptr inbounds [102 x %struct.stu], [102 x %struct.stu]* %7, i64 0, i64 %120
  %122 = getelementptr inbounds %struct.stu, %struct.stu* %121, i32 0, i32 1
  %123 = load i32, i32* %122, align 4
  %124 = icmp sgt i32 %123, 85
  br i1 %124, label %125, label %142

125:                                              ; preds = %118
  %126 = load i32, i32* %4, align 4
  %127 = sext i32 %126 to i64
  %128 = getelementptr inbounds [102 x %struct.stu], [102 x %struct.stu]* %7, i64 0, i64 %127
  %129 = getelementptr inbounds %struct.stu, %struct.stu* %128, i32 0, i32 4
  %130 = load i8, i8* %129, align 4
  %131 = sext i8 %130 to i32
  %132 = icmp eq i32 %131, 89
  br i1 %132, label %133, label %142

133:                                              ; preds = %125
  %134 = load i32, i32* %4, align 4
  %135 = sext i32 %134 to i64
  %136 = getelementptr inbounds [102 x i32], [102 x i32]* %9, i64 0, i64 %135
  %137 = load i32, i32* %136, align 4
  %138 = add nsw i32 %137, 1000
  %139 = load i32, i32* %4, align 4
  %140 = sext i32 %139 to i64
  %141 = getelementptr inbounds [102 x i32], [102 x i32]* %9, i64 0, i64 %140
  store i32 %138, i32* %141, align 4
  br label %142

142:                                              ; preds = %133, %125, %118
  %143 = load i32, i32* %4, align 4
  %144 = sext i32 %143 to i64
  %145 = getelementptr inbounds [102 x %struct.stu], [102 x %struct.stu]* %7, i64 0, i64 %144
  %146 = getelementptr inbounds %struct.stu, %struct.stu* %145, i32 0, i32 2
  %147 = load i32, i32* %146, align 4
  %148 = icmp sgt i32 %147, 80
  br i1 %148, label %149, label %166

149:                                              ; preds = %142
  %150 = load i32, i32* %4, align 4
  %151 = sext i32 %150 to i64
  %152 = getelementptr inbounds [102 x %struct.stu], [102 x %struct.stu]* %7, i64 0, i64 %151
  %153 = getelementptr inbounds %struct.stu, %struct.stu* %152, i32 0, i32 5
  %154 = load i8, i8* %153, align 1
  %155 = sext i8 %154 to i32
  %156 = icmp eq i32 %155, 89
  br i1 %156, label %157, label %166

157:                                              ; preds = %149
  %158 = load i32, i32* %4, align 4
  %159 = sext i32 %158 to i64
  %160 = getelementptr inbounds [102 x i32], [102 x i32]* %9, i64 0, i64 %159
  %161 = load i32, i32* %160, align 4
  %162 = add nsw i32 %161, 850
  %163 = load i32, i32* %4, align 4
  %164 = sext i32 %163 to i64
  %165 = getelementptr inbounds [102 x i32], [102 x i32]* %9, i64 0, i64 %164
  store i32 %162, i32* %165, align 4
  br label %166

166:                                              ; preds = %157, %149, %142
  %167 = load i32, i32* %3, align 4
  %168 = load i32, i32* %4, align 4
  %169 = sext i32 %168 to i64
  %170 = getelementptr inbounds [102 x i32], [102 x i32]* %9, i64 0, i64 %169
  %171 = load i32, i32* %170, align 4
  %172 = add nsw i32 %167, %171
  store i32 %172, i32* %3, align 4
  br label %173

173:                                              ; preds = %166
  %174 = load i32, i32* %4, align 4
  %175 = add nsw i32 %174, 1
  store i32 %175, i32* %4, align 4
  br label %49

176:                                              ; preds = %49
  store i32 1, i32* %4, align 4
  br label %177

177:                                              ; preds = %237, %176
  %178 = load i32, i32* %4, align 4
  %179 = load i32, i32* %2, align 4
  %180 = icmp sle i32 %178, %179
  br i1 %180, label %181, label %240

181:                                              ; preds = %177
  %182 = load i32, i32* %4, align 4
  %183 = add nsw i32 %182, 1
  store i32 %183, i32* %5, align 4
  br label %184

184:                                              ; preds = %233, %181
  %185 = load i32, i32* %5, align 4
  %186 = load i32, i32* %2, align 4
  %187 = icmp sle i32 %185, %186
  br i1 %187, label %188, label %236

188:                                              ; preds = %184
  %189 = load i32, i32* %4, align 4
  %190 = sext i32 %189 to i64
  %191 = getelementptr inbounds [102 x i32], [102 x i32]* %9, i64 0, i64 %190
  %192 = load i32, i32* %191, align 4
  %193 = load i32, i32* %5, align 4
  %194 = sext i32 %193 to i64
  %195 = getelementptr inbounds [102 x i32], [102 x i32]* %9, i64 0, i64 %194
  %196 = load i32, i32* %195, align 4
  %197 = icmp slt i32 %192, %196
  br i1 %197, label %198, label %232

198:                                              ; preds = %188
  %199 = load i32, i32* %4, align 4
  %200 = sext i32 %199 to i64
  %201 = getelementptr inbounds [102 x i32], [102 x i32]* %9, i64 0, i64 %200
  %202 = load i32, i32* %201, align 4
  store i32 %202, i32* %6, align 4
  %203 = load i32, i32* %5, align 4
  %204 = sext i32 %203 to i64
  %205 = getelementptr inbounds [102 x i32], [102 x i32]* %9, i64 0, i64 %204
  %206 = load i32, i32* %205, align 4
  %207 = load i32, i32* %4, align 4
  %208 = sext i32 %207 to i64
  %209 = getelementptr inbounds [102 x i32], [102 x i32]* %9, i64 0, i64 %208
  store i32 %206, i32* %209, align 4
  %210 = load i32, i32* %6, align 4
  %211 = load i32, i32* %5, align 4
  %212 = sext i32 %211 to i64
  %213 = getelementptr inbounds [102 x i32], [102 x i32]* %9, i64 0, i64 %212
  store i32 %210, i32* %213, align 4
  %214 = load i32, i32* %4, align 4
  %215 = sext i32 %214 to i64
  %216 = getelementptr inbounds [102 x %struct.stu], [102 x %struct.stu]* %7, i64 0, i64 %215
  %217 = bitcast %struct.stu* %8 to i8*
  %218 = bitcast %struct.stu* %216 to i8*
  call void @llvm.memcpy.p0i8.p0i8.i64(i8* align 4 %217, i8* align 4 %218, i64 116, i1 false)
  %219 = load i32, i32* %4, align 4
  %220 = sext i32 %219 to i64
  %221 = getelementptr inbounds [102 x %struct.stu], [102 x %struct.stu]* %7, i64 0, i64 %220
  %222 = load i32, i32* %5, align 4
  %223 = sext i32 %222 to i64
  %224 = getelementptr inbounds [102 x %struct.stu], [102 x %struct.stu]* %7, i64 0, i64 %223
  %225 = bitcast %struct.stu* %221 to i8*
  %226 = bitcast %struct.stu* %224 to i8*
  call void @llvm.memcpy.p0i8.p0i8.i64(i8* align 4 %225, i8* align 4 %226, i64 116, i1 false)
  %227 = load i32, i32* %5, align 4
  %228 = sext i32 %227 to i64
  %229 = getelementptr inbounds [102 x %struct.stu], [102 x %struct.stu]* %7, i64 0, i64 %228
  %230 = bitcast %struct.stu* %229 to i8*
  %231 = bitcast %struct.stu* %8 to i8*
  call void @llvm.memcpy.p0i8.p0i8.i64(i8* align 4 %230, i8* align 4 %231, i64 116, i1 false)
  br label %232

232:                                              ; preds = %198, %188
  br label %233

233:                                              ; preds = %232
  %234 = load i32, i32* %5, align 4
  %235 = add nsw i32 %234, 1
  store i32 %235, i32* %5, align 4
  br label %184

236:                                              ; preds = %184
  br label %237

237:                                              ; preds = %236
  %238 = load i32, i32* %4, align 4
  %239 = add nsw i32 %238, 1
  store i32 %239, i32* %4, align 4
  br label %177

240:                                              ; preds = %177
  %241 = getelementptr inbounds [102 x %struct.stu], [102 x %struct.stu]* %7, i64 0, i64 1
  %242 = getelementptr inbounds %struct.stu, %struct.stu* %241, i32 0, i32 0
  %243 = getelementptr inbounds [100 x i8], [100 x i8]* %242, i64 0, i64 0
  %244 = call i32 (i8*, ...) @printf(i8* getelementptr inbounds ([4 x i8], [4 x i8]* @.str.3, i64 0, i64 0), i8* %243)
  %245 = getelementptr inbounds [102 x i32], [102 x i32]* %9, i64 0, i64 1
  %246 = load i32, i32* %245, align 4
  %247 = call i32 (i8*, ...) @printf(i8* getelementptr inbounds ([4 x i8], [4 x i8]* @.str.4, i64 0, i64 0), i32 %246)
  %248 = load i32, i32* %3, align 4
  %249 = call i32 (i8*, ...) @printf(i8* getelementptr inbounds ([4 x i8], [4 x i8]* @.str.4, i64 0, i64 0), i32 %248)
  ret i32 0
}